; ModuleID = '58/1190.c'
source_filename = "58/1190.c"
target datalayout = "e-m:e-p270:32:32-p271:32:32-p272:64:64-i64:64-f80:128-n8:16:32:64-S128"
target triple = "x86_64-pc-linux-gnu"

@.str = private unnamed_addr constant [3 x i8] c"%d\00", align 1
@.str.1 = private unnamed_addr constant [4 x i8] c"%d\0A\00", align 1

; Function Attrs: noinline nounwind uwtable
define dso_local i32 @main() #0 {
  %1 = alloca i32, align 4
  %2 = alloca [81 x i8]*, align 8
  %3 = alloca i32, align 4
  %4 = alloca i32, align 4
  %5 = alloca i32, align 4
  %6 = alloca i32, align 4
  %7 = alloca i32, align 4
  store i32 0, i32* %1, align 4
  store i32 0, i32* %7, align 4
  %8 = call i32 (i8*, ...) @__isoc99_scanf(i8* getelementptr inbounds ([3 x i8], [3 x i8]* @.str, i64 0, i64 0), i32* %5)
  %9 = load i32, i32* %5, align 4
  %10 = sext i32 %9 to i64
  %11 = call noalias i8* @calloc(i64 %10, i64 81) #4
  %12 = bitcast i8* %11 to [81 x i8]*
  store [81 x i8]* %12, [81 x i8]** %2, align 8
  %13 = load [81 x i8]*, [81 x i8]** %2, align 8
  %14 = getelementptr inbounds [81 x i8], [81 x i8]* %13, i64 0, i64 0
  %15 = call i32 (i8*, ...) bitcast (i32 (...)* @gets to i32 (i8*, ...)*)(i8* %14)
  store i32 0, i32* %3, align 4
  br label %16

16:                                               ; preds = %178, %0
  %17 = load i32, i32* %3, align 4
  %18 = load i32, i32* %5, align 4
  %19 = icmp slt i32 %17, %18
  br i1 %19, label %20, label %181

20:                                               ; preds = %16
  %21 = load [81 x i8]*, [81 x i8]** %2, align 8
  %22 = load i32, i32* %3, align 4
  %23 = sext i32 %22 to i64
  %24 = getelementptr inbounds [81 x i8], [81 x i8]* %21, i64 %23
  %25 = getelementptr inbounds [81 x i8], [81 x i8]* %24, i64 0, i64 0
  %26 = call i32 (i8*, ...) bitcast (i32 (...)* @gets to i32 (i8*, ...)*)(i8* %25)
  store i32 1, i32* %7, align 4
  %27 = load [81 x i8]*, [81 x i8]** %2, align 8
  %28 = load i32, i32* %3, align 4
  %29 = sext i32 %28 to i64
  %30 = getelementptr inbounds [81 x i8], [81 x i8]* %27, i64 %29
  %31 = getelementptr inbounds [81 x i8], [81 x i8]* %30, i64 0, i64 0
  %32 = call i64 @strlen(i8* %31) #5
  %33 = trunc i64 %32 to i32
  store i32 %33, i32* %4, align 4
  %34 = load [81 x i8]*, [81 x i8]** %2, align 8
  %35 = load i32, i32* %3, align 4
  %36 = sext i32 %35 to i64
  %37 = getelementptr inbounds [81 x i8], [81 x i8]* %34, i64 %36
  %38 = getelementptr inbounds [81 x i8], [81 x i8]* %37, i64 0, i64 0
  %39 = load i8, i8* %38, align 1
  %40 = sext i8 %39 to i32
  %41 = icmp sge i32 %40, 65
  br i1 %41, label %42, label %51

42:                                               ; preds = %20
  %43 = load [81 x i8]*, [81 x i8]** %2, align 8
  %44 = load i32, i32* %3, align 4
  %45 = sext i32 %44 to i64
  %46 = getelementptr inbounds [81 x i8], [81 x i8]* %43, i64 %45
  %47 = getelementptr inbounds [81 x i8], [81 x i8]* %46, i64 0, i64 0
  %48 = load i8, i8* %47, align 1
  %49 = sext i8 %48 to i32
  %50 = icmp sle i32 %49, 90
  br i1 %50, label %78, label %51

51:                                               ; preds = %42, %20
  %52 = load [81 x i8]*, [81 x i8]** %2, align 8
  %53 = load i32, i32* %3, align 4
  %54 = sext i32 %53 to i64
  %55 = getelementptr inbounds [81 x i8], [81 x i8]* %52, i64 %54
  %56 = getelementptr inbounds [81 x i8], [81 x i8]* %55, i64 0, i64 0
  %57 = load i8, i8* %56, align 1
  %58 = sext i8 %57 to i32
  %59 = icmp sge i32 %58, 97
  br i1 %59, label %60, label %69

60:                                               ; preds = %51
  %61 = load [81 x i8]*, [81 x i8]** %2, align 8
  %62 = load i32, i32* %3, align 4
  %63 = sext i32 %62 to i64
  %64 = getelementptr inbounds [81 x i8], [81 x i8]* %61, i64 %63
  %65 = getelementptr inbounds [81 x i8], [81 x i8]* %64, i64 0, i64 0
  %66 = load i8, i8* %65, align 1
  %67 = sext i8 %66 to i32
  %68 = icmp sle i32 %67, 122
  br i1 %68, label %78, label %69

69:                                               ; preds = %60, %51
  %70 = load [81 x i8]*, [81 x i8]** %2, align 8
  %71 = load i32, i32* %3, align 4
  %72 = sext i32 %71 to i64
  %73 = getelementptr inbounds [81 x i8], [81 x i8]* %70, i64 %72
  %74 = getelementptr inbounds [81 x i8], [81 x i8]* %73, i64 0, i64 0
  %75 = load i8, i8* %74, align 1
  %76 = sext i8 %75 to i32
  %77 = icmp eq i32 %76, 95
  br i1 %77, label %78, label %174

78:                                               ; preds = %69, %60, %42
  store i32 1, i32* %6, align 4
  br label %79

79:                                               ; preds = %170, %78
  %80 = load i32, i32* %6, align 4
  %81 = load i32, i32* %4, align 4
  %82 = icmp slt i32 %80, %81
  br i1 %82, label %83, label %173

83:                                               ; preds = %79
  %84 = load [81 x i8]*, [81 x i8]** %2, align 8
  %85 = load i32, i32* %3, align 4
  %86 = sext i32 %85 to i64
  %87 = getelementptr inbounds [81 x i8], [81 x i8]* %84, i64 %86
  %88 = getelementptr inbounds [81 x i8], [81 x i8]* %87, i64 0, i64 0
  %89 = load i32, i32* %6, align 4
  %90 = sext i32 %89 to i64
  %91 = getelementptr inbounds i8, i8* %88, i64 %90
  %92 = load i8, i8* %91, align 1
  %93 = sext i8 %92 to i32
  %94 = icmp sge i32 %93, 65
  br i1 %94, label %95, label %107

95:                                               ; preds = %83
  %96 = load [81 x i8]*, [81 x i8]** %2, align 8
  %97 = load i32, i32* %3, align 4
  %98 = sext i32 %97 to i64
  %99 = getelementptr inbounds [81 x i8], [81 x i8]* %96, i64 %98
  %100 = getelementptr inbounds [81 x i8], [81 x i8]* %99, i64 0, i64 0
  %101 = load i32, i32* %6, align 4
  %102 = sext i32 %101 to i64
  %103 = getelementptr inbounds i8, i8* %100, i64 %102
  %104 = load i8, i8* %103, align 1
  %105 = sext i8 %104 to i32
  %106 = icmp sle i32 %105, 90
  br i1 %106, label %167, label %107

107:                                              ; preds = %95, %83
  %108 = load [81 x i8]*, [81 x i8]** %2, align 8
  %109 = load i32, i32* %3, align 4
  %110 = sext i32 %109 to i64
  %111 = getelementptr inbounds [81 x i8], [81 x i8]* %108, i64 %110
  %112 = getelementptr inbounds [81 x i8], [81 x i8]* %111, i64 0, i64 0
  %113 = load i32, i32* %6, align 4
  %114 = sext i32 %113 to i64
  %115 = getelementptr inbounds i8, i8* %112, i64 %114
  %116 = load i8, i8* %115, align 1
  %117 = sext i8 %116 to i32
  %118 = icmp sge i32 %117, 97
  br i1 %118, label %119, label %131

119:                                              ; preds = %107
  %120 = load [81 x i8]*, [81 x i8]** %2, align 8
  %121 = load i32, i32* %3, align 4
  %122 = sext i32 %121 to i64
  %123 = getelementptr inbounds [81 x i8], [81 x i8]* %120, i64 %122
  %124 = getelementptr inbounds [81 x i8], [81 x i8]* %123, i64 0, i64 0
  %125 = load i32, i32* %6, align 4
  %126 = sext i32 %125 to i64
  %127 = getelementptr inbounds i8, i8* %124, i64 %126
  %128 = load i8, i8* %127, align 1
  %129 = sext i8 %128 to i32
  %130 = icmp sle i32 %129, 122
  br i1 %130, label %167, label %131

131:                                              ; preds = %119, %107
  %132 = load [81 x i8]*, [81 x i8]** %2, align 8
  %133 = load i32, i32* %3, align 4
  %134 = sext i32 %133 to i64
  %135 = getelementptr inbounds [81 x i8], [81 x i8]* %132, i64 %134
  %136 = getelementptr inbounds [81 x i8], [81 x i8]* %135, i64 0, i64 0
  %137 = load i32, i32* %6, align 4
  %138 = sext i32 %137 to i64
  %139 = getelementptr inbounds i8, i8* %136, i64 %138
  %140 = load i8, i8* %139, align 1
  %141 = sext i8 %140 to i32
  %142 = icmp eq i32 %141, 95
  br i1 %142, label %167, label %143

143:                                              ; preds = %131
  %144 = load [81 x i8]*, [81 x i8]** %2, align 8
  %145 = load i32, i32* %3, align 4
  %146 = sext i32 %145 to i64
  %147 = getelementptr inbounds [81 x i8], [81 x i8]* %144, i64 %146
  %148 = getelementptr inbounds [81 x i8], [81 x i8]* %147, i64 0, i64 0
  %149 = load i32, i32* %6, align 4
  %150 = sext i32 %149 to i64
  %151 = getelementptr inbounds i8, i8* %148, i64 %150
  %152 = load i8, i8* %151, align 1
  %153 = sext i8 %152 to i32
  %154 = icmp sge i32 %153, 48
  br i1 %154, label %155, label %168

155:                                              ; preds = %143
  %156 = load [81 x i8]*, [81 x i8]** %2, align 8
  %157 = load i32, i32* %3, align 4
  %158 = sext i32 %157 to i64
  %159 = getelementptr inbounds [81 x i8], [81 x i8]* %156, i64 %158
  %160 = getelementptr inbounds [81 x i8], [81 x i8]* %159, i64 0, i64 0
  %161 = load i32, i32* %6, align 4
  %162 = sext i32 %161 to i64
  %163 = getelementptr inbounds i8, i8* %160, i64 %162
  %164 = load i8, i8* %163, align 1
  %165 = sext i8 %164 to i32
  %166 = icmp sle i32 %165, 57
  br i1 %166, label %167, label %168

167:                                              ; preds = %155, %131, %119, %95
  br label %169

168:                                              ; preds = %155, %143
  store i32 0, i32* %7, align 4
  br label %169

169:                                              ; preds = %168, %167
  br label %170

170:                                              ; preds = %169
  %171 = load i32, i32* %6, align 4
  %172 = add nsw i32 %171, 1
  store i32 %172, i32* %6, align 4
  br label %79

173:                                              ; preds = %79
  br label %175

174:                                              ; preds = %69
  store i32 0, i32* %7, align 4
  br label %175

175:                                              ; preds = %174, %173
  %176 = load i32, i32* %7, align 4
  %177 = call i32 (i8*, ...) @printf(i8* getelementptr inbounds ([4 x i8], [4 x i8]* @.str.1, i64 0, i64 0), i32 %176)
  br label %178

178:                                              ; preds = %175
  %179 = load i32, i32* %3, align 4
  %180 = add nsw i32 %179, 1
  store i32 %180, i32* %3, align 4
  br label %16

181:                                              ; preds = %16
  %182 = load [81 x i8]*, [81 x i8]** %2, align 8
  %183 = bitcast [81 x i8]* %182 to i8*
  call void @free(i8* %183) #4
  ret i32 0
}

declare dso_local i32 @__isoc99_scanf(i8*, ...) #1

; Function Attrs: nounwind
declare dso_local noalias i8* @calloc(i64, i64) #2

declare dso_local i32 @gets(...) #1

; Function Attrs: nounwind readonly
declare dso_local i64 @strlen(i8*) #3

declare dso_local i32 @printf(i8*, ...) #1

; Function Attrs: nounwind
declare dso_local void @free(i8*) #2


!llvm.module.flags = !{!0}
!llvm.ident = !{!1}

!0 = !{i32 1, !"wchar_size", i32 4}
!1 = !{!"clang version 10.0.0-4ubuntu1 "}
